target datalayout = "e-m:e-p270:32:32-p271:32:32-p272:64:64-i64:64-i128:128-f80:128-n8:16:32:64-S128"
target triple = "x86_64-pc-linux-gnu"

%struct.ObjectAddress = type { i32, i32, i32 }
%struct.EventTriggerQueryState = type { ptr, %struct.slist_head, i8, i32, i32, i8, ptr, ptr, ptr }
%struct.slist_head = type { %struct.slist_node }
%struct.slist_node = type { ptr }
%struct.CollectedCommand = type { i32, i8, ptr, %union.anon, ptr }
%union.anon = type { %struct.anon.2 }
%struct.anon.2 = type { %struct.ObjectAddress, ptr, ptr }
%struct.anon.0 = type { i32, i32, ptr }
%struct.CollectedATSubcmd = type { %struct.ObjectAddress, ptr }

@currentEventTriggerState = internal global ptr null, align 8
@CurrentMemoryContext = external global ptr, align 8

; Function Attrs: inlinehint nounwind uwtable
define internal ptr @MemoryContextSwitchTo(ptr noundef %0) #6 {
  %2 = alloca ptr, align 8
  %3 = alloca ptr, align 8
  store ptr %0, ptr %2, align 8
  call void @llvm.lifetime.start.p0(i64 8, ptr %3) #10
  %4 = load ptr, ptr @CurrentMemoryContext, align 8
  store ptr %4, ptr %3, align 8
  %5 = load ptr, ptr %2, align 8
  store ptr %5, ptr @CurrentMemoryContext, align 8
  %6 = load ptr, ptr %3, align 8
  call void @llvm.lifetime.end.p0(i64 8, ptr %3) #10
  ret ptr %6
}

; Function Attrs: nounwind uwtable
define dso_local void @EventTriggerCollectAlterTableSubcmd(ptr noundef %0, i64 %1, i32 %2) #0 {
  %4 = alloca %struct.ObjectAddress, align 4
  %5 = alloca { i64, i32 }, align 4
  %6 = alloca ptr, align 8
  %7 = alloca ptr, align 8
  %8 = alloca ptr, align 8
  %9 = alloca i32, align 4
  %10 = getelementptr inbounds nuw { i64, i32 }, ptr %5, i32 0, i32 0
  store i64 %1, ptr %10, align 4
  %11 = getelementptr inbounds nuw { i64, i32 }, ptr %5, i32 0, i32 1
  store i32 %2, ptr %11, align 4
  call void @llvm.memcpy.p0.p0.i64(ptr align 4 %4, ptr align 4 %5, i64 12, i1 false)
  store ptr %0, ptr %6, align 8
  call void @llvm.lifetime.start.p0(i64 8, ptr %7) #10
  call void @llvm.lifetime.start.p0(i64 8, ptr %8) #10
  %12 = load ptr, ptr @currentEventTriggerState, align 8
  %13 = icmp ne ptr %12, null
  br i1 %13, label %14, label %19

14:                                               ; preds = %3
  %15 = load ptr, ptr @currentEventTriggerState, align 8
  %16 = getelementptr inbounds nuw %struct.EventTriggerQueryState, ptr %15, i32 0, i32 5
  %17 = load i8, ptr %16, align 4, !range !8, !noundef !9
  %18 = trunc i8 %17 to i1
  br i1 %18, label %19, label %20

19:                                               ; preds = %14, %3
  store i32 1, ptr %9, align 4
  br label %47

20:                                               ; preds = %14
  %21 = load ptr, ptr @currentEventTriggerState, align 8
  %22 = getelementptr inbounds nuw %struct.EventTriggerQueryState, ptr %21, i32 0, i32 0
  %23 = load ptr, ptr %22, align 8
  %24 = call ptr @MemoryContextSwitchTo(ptr noundef %23)
  store ptr %24, ptr %7, align 8
  %25 = call ptr @palloc(i64 noundef 24)
  store ptr %25, ptr %8, align 8
  %26 = load ptr, ptr %8, align 8
  %27 = getelementptr inbounds nuw %struct.CollectedATSubcmd, ptr %26, i32 0, i32 0
  call void @llvm.memcpy.p0.p0.i64(ptr align 8 %27, ptr align 4 %4, i64 12, i1 false)
  %28 = load ptr, ptr %6, align 8
  %29 = call ptr @copyObjectImpl(ptr noundef %28)
  %30 = load ptr, ptr %8, align 8
  %31 = getelementptr inbounds nuw %struct.CollectedATSubcmd, ptr %30, i32 0, i32 1
  store ptr %29, ptr %31, align 8
  %32 = load ptr, ptr @currentEventTriggerState, align 8
  %33 = getelementptr inbounds nuw %struct.EventTriggerQueryState, ptr %32, i32 0, i32 6
  %34 = load ptr, ptr %33, align 8
  %35 = getelementptr inbounds nuw %struct.CollectedCommand, ptr %34, i32 0, i32 3
  %36 = getelementptr inbounds nuw %struct.anon.0, ptr %35, i32 0, i32 2
  %37 = load ptr, ptr %36, align 8
  %38 = load ptr, ptr %8, align 8
  %39 = call ptr @lappend(ptr noundef %37, ptr noundef %38)
  %40 = load ptr, ptr @currentEventTriggerState, align 8
  %41 = getelementptr inbounds nuw %struct.EventTriggerQueryState, ptr %40, i32 0, i32 6
  %42 = load ptr, ptr %41, align 8
  %43 = getelementptr inbounds nuw %struct.CollectedCommand, ptr %42, i32 0, i32 3
  %44 = getelementptr inbounds nuw %struct.anon.0, ptr %43, i32 0, i32 2
  store ptr %39, ptr %44, align 8
  %45 = load ptr, ptr %7, align 8
  %46 = call ptr @MemoryContextSwitchTo(ptr noundef %45)
  store i32 0, ptr %9, align 4
  br label %47

47:                                               ; preds = %20, %19
  call void @llvm.lifetime.end.p0(i64 8, ptr %8) #10
  call void @llvm.lifetime.end.p0(i64 8, ptr %7) #10
  %48 = load i32, ptr %9, align 4
  switch i32 %48, label %50 [
    i32 0, label %49
    i32 1, label %49
  ]

49:                                               ; preds = %47, %47
  ret void

50:                                               ; preds = %47
  unreachable
}