; Function Attrs: nounwind uwtable
define dso_local void @EventTriggerCollectAlterTableSubcmd(ptr noundef %0, i64 %1, i32 %2) local_unnamed_addr #0 {
  %4 = load ptr, ptr @currentEventTriggerState, align 8
  %.not = icmp eq ptr %4, null
  br i1 %.not, label %25, label %5

5:                                                ; preds = %3
  %6 = getelementptr inbounds nuw i8, ptr %4, i64 28
  %7 = load i8, ptr %6, align 4, !range !9, !noundef !10
  %8 = trunc nuw i8 %7 to i1
  br i1 %8, label %25, label %9

9:                                                ; preds = %5
  %10 = load ptr, ptr %4, align 8
  %11 = load ptr, ptr @CurrentMemoryContext, align 8
  store ptr %10, ptr @CurrentMemoryContext, align 8
  %12 = tail call ptr @palloc(i64 noundef 24) #16
  store i64 %1, ptr %12, align 8
  %.sroa.26.0..sroa_idx = getelementptr inbounds nuw i8, ptr %12, i64 8
  store i32 %2, ptr %.sroa.26.0..sroa_idx, align 8
  %13 = tail call ptr @copyObjectImpl(ptr noundef %0) #16
  %14 = getelementptr inbounds nuw i8, ptr %12, i64 16
  store ptr %13, ptr %14, align 8
  %15 = load ptr, ptr @currentEventTriggerState, align 8
  %16 = getelementptr inbounds nuw i8, ptr %15, i64 32
  %17 = load ptr, ptr %16, align 8
  %18 = getelementptr inbounds nuw i8, ptr %17, i64 24
  %19 = load ptr, ptr %18, align 8
  %20 = tail call ptr @lappend(ptr noundef %19, ptr noundef nonnull %12) #16
  %21 = load ptr, ptr @currentEventTriggerState, align 8
  %22 = getelementptr inbounds nuw i8, ptr %21, i64 32
  %23 = load ptr, ptr %22, align 8
  %24 = getelementptr inbounds nuw i8, ptr %23, i64 24
  store ptr %20, ptr %24, align 8
  store ptr %11, ptr @CurrentMemoryContext, align 8
  br label %25

25:                                               ; preds = %3, %5, %9
  ret void
}